	.section	__TEXT,__text,regular,pure_instructions
	.build_version macos, 10, 15	sdk_version 10, 15, 6
	.globl	_do_loop_hook2          ## -- Begin function do_loop_hook2
	.p2align	4, 0x90
_do_loop_hook2:                         ## @do_loop_hook2
	.cfi_startproc
## %bb.0:
	pushq	%rbp
	.cfi_def_cfa_offset 16
	.cfi_offset %rbp, -16
	movq	%rsp, %rbp
	.cfi_def_cfa_register %rbp
	movq	32(%rsi), %rdi
	popq	%rbp
	jmpq	*24(%rsi)               ## TAILCALL
	.cfi_endproc
                                        ## -- End function
	.globl	_do_loop_flush          ## -- Begin function do_loop_flush
	.p2align	4, 0x90
_do_loop_flush:                         ## @do_loop_flush
	.cfi_startproc
## %bb.0:
	pushq	%rbp
	.cfi_def_cfa_offset 16
	.cfi_offset %rbp, -16
	movq	%rsp, %rbp
	.cfi_def_cfa_register %rbp
	pushq	%r15
	pushq	%r14
	pushq	%r12
	pushq	%rbx
	.cfi_offset %rbx, -48
	.cfi_offset %r12, -40
	.cfi_offset %r14, -32
	.cfi_offset %r15, -24
	movq	8(%rdx), %rbx
	testq	%rbx, %rbx
	je	LBB1_6
## %bb.1:                               ## %.lr.ph
	movq	_OBJC_SELECTOR_REFERENCES_(%rip), %r14
	movq	_OBJC_SELECTOR_REFERENCES_.2(%rip), %r15
	movq	_objc_msgSend@GOTPCREL(%rip), %r12
	jmp	LBB1_2
	.p2align	4, 0x90
LBB1_5:                                 ##   in Loop: Header=BB1_2 Depth=1
	movq	24(%rbx), %rbx
	testq	%rbx, %rbx
	je	LBB1_6
LBB1_2:                                 ## =>This Inner Loop Header: Depth=1
	cmpl	$0, 16(%rbx)
	jle	LBB1_5
## %bb.3:                               ##   in Loop: Header=BB1_2 Depth=1
	cmpl	$0, 20(%rbx)
	je	LBB1_5
## %bb.4:                               ##   in Loop: Header=BB1_2 Depth=1
	movq	(%rbx), %rdi
	movq	%r14, %rsi
	callq	*%r12
	movq	(%rbx), %rdi
	movq	%r15, %rsi
	callq	*%r12
	callq	_glFlush
	movl	$0, 16(%rbx)
	jmp	LBB1_5
LBB1_6:                                 ## %._crit_edge
	popq	%rbx
	popq	%r12
	popq	%r14
	popq	%r15
	popq	%rbp
	retq
	.cfi_endproc
                                        ## -- End function
	.globl	_mlx_init               ## -- Begin function mlx_init
	.p2align	4, 0x90
_mlx_init:                              ## @mlx_init
	.cfi_startproc
## %bb.0:
	pushq	%rbp
	.cfi_def_cfa_offset 16
	.cfi_offset %rbp, -16
	movq	%rsp, %rbp
	.cfi_def_cfa_register %rbp
	pushq	%r15
	pushq	%r14
	pushq	%r12
	pushq	%rbx
	subq	$208, %rsp
	.cfi_offset %rbx, -48
	.cfi_offset %r12, -40
	.cfi_offset %r14, -32
	.cfi_offset %r15, -24
	movq	___stack_chk_guard@GOTPCREL(%rip), %rax
	movq	(%rax), %rax
	movq	%rax, -40(%rbp)
	movl	$64, %edi
	callq	_malloc
	movq	%rax, %r12
	testq	%rax, %rax
	je	LBB2_8
## %bb.1:
	movl	$0, 56(%r12)
	movq	$0, 8(%r12)
	movq	$0, 16(%r12)
	movq	$0, 24(%r12)
	movq	$0, 32(%r12)
	movq	_OBJC_CLASSLIST_REFERENCES_$_(%rip), %rdi
	movq	_OBJC_SELECTOR_REFERENCES_.4(%rip), %rsi
	movq	_objc_msgSend@GOTPCREL(%rip), %r15
	callq	*%r15
	movq	%rax, (%r12)
	xorps	%xmm0, %xmm0
	movaps	%xmm0, -240(%rbp)
	movaps	%xmm0, -224(%rbp)
	movaps	%xmm0, -208(%rbp)
	movaps	%xmm0, -192(%rbp)
	movq	_OBJC_CLASSLIST_REFERENCES_$_.5(%rip), %rdi
	movq	_OBJC_SELECTOR_REFERENCES_.7(%rip), %rsi
	leaq	L__unnamed_cfstring_(%rip), %rdx
	callq	*%r15
	movq	_OBJC_SELECTOR_REFERENCES_.9(%rip), %rsi
	leaq	-240(%rbp), %rdx
	leaq	-168(%rbp), %rcx
	movl	$16, %r8d
	movq	%rax, %rdi
	callq	*%r15
	testq	%rax, %rax
	je	LBB2_2
## %bb.3:
	movq	-232(%rbp), %rax
	movq	(%rax), %rdi
	movq	_OBJC_SELECTOR_REFERENCES_.11(%rip), %r14
	movl	$2, %edx
	movq	%r14, %rsi
	callq	*_objc_msgSend@GOTPCREL(%rip)
	jmp	LBB2_4
LBB2_2:                                 ## %._crit_edge
	movq	_OBJC_SELECTOR_REFERENCES_.11(%rip), %r14
LBB2_4:
	movl	$100000, %edi           ## imm = 0x186A0
	callq	_usleep
	movabsq	$8589934592, %rax       ## imm = 0x200000000
	movq	%rax, -176(%rbp)
	leaq	-176(%rbp), %rdi
	movl	$1, %esi
	callq	_TransformProcessType
	movl	$100000, %edi           ## imm = 0x186A0
	callq	_usleep
	movq	_OBJC_CLASSLIST_REFERENCES_$_.5(%rip), %rdi
	movq	_OBJC_SELECTOR_REFERENCES_.13(%rip), %rsi
	callq	*%r15
	movl	$2, %edx
	movq	%rax, %rdi
	movq	%r14, %rsi
	callq	*%r15
	xorl	%ebx, %ebx
	movq	%r12, %rdi
	movl	$1140, %esi             ## imm = 0x474
	movl	$20, %edx
	xorl	%eax, %eax
	callq	_mlx_new_image
	movq	%rax, 48(%r12)
	leaq	_font_atlas(%rip), %rcx
	.p2align	4, 0x90
LBB2_5:                                 ## =>This Inner Loop Header: Depth=1
	movzbl	14(%rbx,%rcx), %edx
	movq	8(%rax), %rax
	movb	%dl, (%rax,%rbx)
	movzbl	12(%rbx,%rcx), %eax
	movzbl	13(%rbx,%rcx), %edx
	movq	48(%r12), %rsi
	movq	8(%rsi), %rsi
	movb	%dl, 1(%rsi,%rbx)
	movq	48(%r12), %rdx
	movq	8(%rdx), %rdx
	movb	%al, 2(%rdx,%rbx)
	movzbl	15(%rbx,%rcx), %eax
	notb	%al
	movq	48(%r12), %rdx
	movq	8(%rdx), %rdx
	movb	%al, 3(%rdx,%rbx)
	cmpq	$91195, %rbx            ## imm = 0x1643B
	ja	LBB2_7
## %bb.6:                               ## %._crit_edge38
                                        ##   in Loop: Header=BB2_5 Depth=1
	addq	$4, %rbx
	movq	48(%r12), %rax
	jmp	LBB2_5
LBB2_7:
	movq	48(%r12), %rax
	movl	$1088721481, 24(%rax)   ## imm = 0x40E49249
	movabsq	$-4508103225909145015, %rcx ## imm = 0xC170000040E49249
	movq	%rcx, 32(%rax)
	movl	$-1049624576, 44(%rax)  ## imm = 0xC1700000
LBB2_8:
	movq	___stack_chk_guard@GOTPCREL(%rip), %rax
	movq	(%rax), %rax
	cmpq	-40(%rbp), %rax
	jne	LBB2_10
## %bb.9:
	movq	%r12, %rax
	addq	$208, %rsp
	popq	%rbx
	popq	%r12
	popq	%r14
	popq	%r15
	popq	%rbp
	retq
LBB2_10:
	callq	___stack_chk_fail
	.cfi_endproc
                                        ## -- End function
	.globl	_mlx_loop               ## -- Begin function mlx_loop
	.p2align	4, 0x90
_mlx_loop:                              ## @mlx_loop
	.cfi_startproc
## %bb.0:
	pushq	%rbp
	.cfi_def_cfa_offset 16
	.cfi_offset %rbp, -16
	movq	%rsp, %rbp
	.cfi_def_cfa_register %rbp
	pushq	%rbx
	subq	$40, %rsp
	.cfi_offset %rbx, -24
	movq	$0, -48(%rbp)
	movq	%rdi, -40(%rbp)
	movq	$0, -32(%rbp)
	movq	$0, -24(%rbp)
	movq	$0, -16(%rbp)
	movl	$1, 56(%rdi)
	leaq	_do_loop_flush(%rip), %r8
	leaq	-48(%rbp), %r9
	movl	$2, %esi
	movl	$0, %edi
	movl	$1, %edx
	xorl	%ecx, %ecx
	callq	_CFRunLoopObserverCreate
	movq	%rax, %rbx
	callq	_CFRunLoopGetMain
	movq	_kCFRunLoopCommonModes@GOTPCREL(%rip), %rcx
	movq	(%rcx), %rdx
	movq	%rax, %rdi
	movq	%rbx, %rsi
	callq	_CFRunLoopAddObserver
	movq	_NSApp@GOTPCREL(%rip), %rax
	movq	(%rax), %rdi
	movq	_OBJC_SELECTOR_REFERENCES_.15(%rip), %rsi
	callq	*_objc_msgSend@GOTPCREL(%rip)
	addq	$40, %rsp
	popq	%rbx
	popq	%rbp
	retq
	.cfi_endproc
                                        ## -- End function
	.globl	_mlx_pixel_put          ## -- Begin function mlx_pixel_put
	.p2align	4, 0x90
_mlx_pixel_put:                         ## @mlx_pixel_put
	.cfi_startproc
## %bb.0:
	pushq	%rbp
	.cfi_def_cfa_offset 16
	.cfi_offset %rbp, -16
	movq	%rsp, %rbp
	.cfi_def_cfa_register %rbp
	pushq	%r15
	pushq	%r14
	pushq	%r13
	pushq	%r12
	pushq	%rbx
	pushq	%rax
	.cfi_offset %rbx, -56
	.cfi_offset %r12, -48
	.cfi_offset %r13, -40
	.cfi_offset %r14, -32
	.cfi_offset %r15, -24
	cmpl	$0, 20(%rsi)
	je	LBB4_2
## %bb.1:
	movl	%r8d, %r15d
	movl	%ecx, %r14d
	movl	%edx, %r12d
	movq	%rsi, %rbx
	movq	(%rsi), %rdi
	movq	_OBJC_SELECTOR_REFERENCES_(%rip), %rsi
	movq	_objc_msgSend@GOTPCREL(%rip), %r13
	callq	*%r13
	movq	(%rbx), %rdi
	movq	_OBJC_SELECTOR_REFERENCES_.17(%rip), %rsi
	movl	%r15d, %edx
	movl	%r12d, %ecx
	movl	%r14d, %r8d
	callq	*%r13
	incl	16(%rbx)
LBB4_2:
	addq	$8, %rsp
	popq	%rbx
	popq	%r12
	popq	%r13
	popq	%r14
	popq	%r15
	popq	%rbp
	retq
	.cfi_endproc
                                        ## -- End function
	.section	__TEXT,__literal8,8byte_literals
	.p2align	3               ## -- Begin function mlx_int_loop_once
LCPI5_0:
	.quad	4591870180066957722     ## double 0.10000000000000001
	.section	__TEXT,__text,regular,pure_instructions
	.globl	_mlx_int_loop_once
	.p2align	4, 0x90
_mlx_int_loop_once:                     ## @mlx_int_loop_once
	.cfi_startproc
## %bb.0:
	pushq	%rbp
	.cfi_def_cfa_offset 16
	.cfi_offset %rbp, -16
	movq	%rsp, %rbp
	.cfi_def_cfa_register %rbp
	pushq	%r15
	pushq	%r14
	pushq	%r13
	pushq	%r12
	pushq	%rbx
	pushq	%rax
	.cfi_offset %rbx, -56
	.cfi_offset %r12, -48
	.cfi_offset %r13, -40
	.cfi_offset %r14, -32
	.cfi_offset %r15, -24
	movq	_OBJC_CLASSLIST_REFERENCES_$_.18(%rip), %rdi
	movq	_OBJC_SELECTOR_REFERENCES_.20(%rip), %rsi
	movq	_objc_msgSend@GOTPCREL(%rip), %r15
	movsd	LCPI5_0(%rip), %xmm0    ## xmm0 = mem[0],zero
	callq	*%r15
	movq	%rax, %r14
	movq	_NSApp@GOTPCREL(%rip), %r12
	movq	(%r12), %rdi
	movq	_NSDefaultRunLoopMode@GOTPCREL(%rip), %rax
	movq	(%rax), %r13
	movq	_OBJC_SELECTOR_REFERENCES_.22(%rip), %rsi
	movq	$-1, %rdx
	movq	%r14, %rcx
	movq	%r13, %r8
	movl	$1, %r9d
	callq	*%r15
	testq	%rax, %rax
	je	LBB5_3
## %bb.1:                               ## %.lr.ph
	movq	_OBJC_SELECTOR_REFERENCES_.26(%rip), %rbx
	.p2align	4, 0x90
LBB5_2:                                 ## =>This Inner Loop Header: Depth=1
	movq	(%r12), %rdi
	movq	_OBJC_SELECTOR_REFERENCES_.24(%rip), %rsi
	movq	%rax, %rdx
	callq	*%r15
	movq	(%r12), %rdi
	movq	%rbx, %rsi
	callq	*%r15
	movq	(%r12), %rdi
	movq	_OBJC_SELECTOR_REFERENCES_.22(%rip), %rsi
	movq	$-1, %rdx
	movq	%r14, %rcx
	movq	%r13, %r8
	movl	$1, %r9d
	callq	*%r15
	testq	%rax, %rax
	jne	LBB5_2
LBB5_3:                                 ## %._crit_edge
	movq	%r14, %rdi
	addq	$8, %rsp
	popq	%rbx
	popq	%r12
	popq	%r13
	popq	%r14
	popq	%r15
	popq	%rbp
	jmpq	*_objc_release@GOTPCREL(%rip) ## TAILCALL
	.cfi_endproc
                                        ## -- End function
	.section	__TEXT,__literal8,8byte_literals
	.p2align	3               ## -- Begin function mlx_do_sync
LCPI6_0:
	.quad	4591870180066957722     ## double 0.10000000000000001
	.section	__TEXT,__text,regular,pure_instructions
	.globl	_mlx_do_sync
	.p2align	4, 0x90
_mlx_do_sync:                           ## @mlx_do_sync
	.cfi_startproc
## %bb.0:
	pushq	%rbp
	.cfi_def_cfa_offset 16
	.cfi_offset %rbp, -16
	movq	%rsp, %rbp
	.cfi_def_cfa_register %rbp
	pushq	%r15
	pushq	%r14
	pushq	%r13
	pushq	%r12
	pushq	%rbx
	subq	$56, %rsp
	.cfi_offset %rbx, -56
	.cfi_offset %r12, -48
	.cfi_offset %r13, -40
	.cfi_offset %r14, -32
	.cfi_offset %r15, -24
	movq	%rdi, -96(%rbp)         ## 8-byte Spill
	movq	8(%rdi), %r12
	testq	%r12, %r12
	je	LBB6_9
## %bb.1:                               ## %.lr.ph
	movq	_OBJC_SELECTOR_REFERENCES_(%rip), %rax
	movq	%rax, -88(%rbp)         ## 8-byte Spill
	movq	_OBJC_SELECTOR_REFERENCES_.2(%rip), %rax
	movq	%rax, -80(%rbp)         ## 8-byte Spill
	movq	_OBJC_SELECTOR_REFERENCES_.20(%rip), %rax
	movq	%rax, -64(%rbp)         ## 8-byte Spill
	movq	_NSDefaultRunLoopMode@GOTPCREL(%rip), %rax
	movq	(%rax), %r15
	movq	_OBJC_SELECTOR_REFERENCES_.22(%rip), %r13
	movq	_OBJC_SELECTOR_REFERENCES_.24(%rip), %rax
	movq	_objc_msgSend@GOTPCREL(%rip), %r14
	movq	%rax, -56(%rbp)         ## 8-byte Spill
	movq	%r13, -48(%rbp)         ## 8-byte Spill
	jmp	LBB6_2
	.p2align	4, 0x90
LBB6_7:                                 ## %mlx_int_loop_once.exit
                                        ##   in Loop: Header=BB6_2 Depth=1
	movq	%r15, %rdi
	callq	*_objc_release@GOTPCREL(%rip)
	movq	%r12, %r15
	movq	-48(%rbp), %r13         ## 8-byte Reload
	movq	-56(%rbp), %rax         ## 8-byte Reload
	movq	-72(%rbp), %r12         ## 8-byte Reload
LBB6_8:                                 ##   in Loop: Header=BB6_2 Depth=1
	movq	24(%r12), %r12
	testq	%r12, %r12
	je	LBB6_9
LBB6_2:                                 ## =>This Loop Header: Depth=1
                                        ##     Child Loop BB6_6 Depth 2
	cmpl	$0, 20(%r12)
	je	LBB6_8
## %bb.3:                               ##   in Loop: Header=BB6_2 Depth=1
	movq	(%r12), %rdi
	movq	%rax, %rbx
	movq	-88(%rbp), %rsi         ## 8-byte Reload
	callq	*%r14
	movq	(%r12), %rdi
	movq	-80(%rbp), %rsi         ## 8-byte Reload
	callq	*%r14
	callq	_glFlush
	movq	%rbx, %rax
	movq	_NSApp@GOTPCREL(%rip), %rbx
	movq	-96(%rbp), %rsi         ## 8-byte Reload
	cmpl	$0, 56(%rsi)
	jne	LBB6_8
## %bb.4:                               ##   in Loop: Header=BB6_2 Depth=1
	movq	%r12, -72(%rbp)         ## 8-byte Spill
	movq	_OBJC_CLASSLIST_REFERENCES_$_.18(%rip), %rdi
	movq	-64(%rbp), %rsi         ## 8-byte Reload
	movsd	LCPI6_0(%rip), %xmm0    ## xmm0 = mem[0],zero
	movq	%rbx, %r12
	movq	%r15, %rbx
	callq	*%r14
	movq	%rax, %r15
	movq	(%r12), %rdi
	movq	%r13, %rsi
	movq	$-1, %rdx
	movq	%rax, %rcx
	movq	%rbx, %r12
	movq	%rbx, %r8
	movl	$1, %r9d
	callq	*%r14
	testq	%rax, %rax
	movq	_NSApp@GOTPCREL(%rip), %rbx
	je	LBB6_7
## %bb.5:                               ## %.lr.ph.i
                                        ##   in Loop: Header=BB6_2 Depth=1
	movq	_OBJC_SELECTOR_REFERENCES_.26(%rip), %r13
	.p2align	4, 0x90
LBB6_6:                                 ##   Parent Loop BB6_2 Depth=1
                                        ## =>  This Inner Loop Header: Depth=2
	movq	(%rbx), %rdi
	movq	-56(%rbp), %rsi         ## 8-byte Reload
	movq	%rax, %rdx
	callq	*%r14
	movq	(%rbx), %rdi
	movq	%r13, %rsi
	callq	*%r14
	movq	(%rbx), %rdi
	movq	-48(%rbp), %rsi         ## 8-byte Reload
	movq	$-1, %rdx
	movq	%r15, %rcx
	movq	%r12, %r8
	movl	$1, %r9d
	callq	*%r14
	testq	%rax, %rax
	jne	LBB6_6
	jmp	LBB6_7
LBB6_9:                                 ## %._crit_edge
	xorl	%eax, %eax
	addq	$56, %rsp
	popq	%rbx
	popq	%r12
	popq	%r13
	popq	%r14
	popq	%r15
	popq	%rbp
	retq
	.cfi_endproc
                                        ## -- End function
	.section	__TEXT,__literal8,8byte_literals
	.p2align	3               ## -- Begin function mlx_loop_hook
LCPI7_0:
	.quad	4547007122018943789     ## double 1.0E-4
	.section	__TEXT,__text,regular,pure_instructions
	.globl	_mlx_loop_hook
	.p2align	4, 0x90
_mlx_loop_hook:                         ## @mlx_loop_hook
	.cfi_startproc
## %bb.0:
	pushq	%rbp
	.cfi_def_cfa_offset 16
	.cfi_offset %rbp, -16
	movq	%rsp, %rbp
	.cfi_def_cfa_register %rbp
	pushq	%r15
	pushq	%r14
	pushq	%rbx
	subq	$40, %rsp
	.cfi_offset %rbx, -40
	.cfi_offset %r14, -32
	.cfi_offset %r15, -24
	movq	%rdx, %r15
	movq	%rsi, %r14
	movq	%rdi, %rbx
	movq	$0, -64(%rbp)
	movq	%rdi, -56(%rbp)
	movq	$0, -48(%rbp)
	movq	$0, -40(%rbp)
	movq	$0, -32(%rbp)
	cmpq	$0, 24(%rdi)
	je	LBB7_2
## %bb.1:
	movq	40(%rbx), %rdi
	callq	_CFRunLoopTimerInvalidate
	movq	40(%rbx), %rdi
	callq	*_objc_release@GOTPCREL(%rip)
LBB7_2:
	movq	%r14, 24(%rbx)
	movq	%r15, 32(%rbx)
	testq	%r14, %r14
	je	LBB7_4
## %bb.3:
	movq	_kCFAllocatorDefault@GOTPCREL(%rip), %rax
	movq	(%rax), %rdi
	leaq	_do_loop_hook2(%rip), %rcx
	movsd	LCPI7_0(%rip), %xmm1    ## xmm1 = mem[0],zero
	leaq	-64(%rbp), %r8
	xorps	%xmm0, %xmm0
	xorl	%esi, %esi
	xorl	%edx, %edx
	callq	_CFRunLoopTimerCreate
	movq	%rax, %r14
	movq	%rax, 40(%rbx)
	callq	_CFRunLoopGetMain
	movq	_kCFRunLoopCommonModes@GOTPCREL(%rip), %rcx
	movq	(%rcx), %rdx
	movq	%rax, %rdi
	movq	%r14, %rsi
	callq	_CFRunLoopAddTimer
LBB7_4:
	xorl	%eax, %eax
	addq	$40, %rsp
	popq	%rbx
	popq	%r14
	popq	%r15
	popq	%rbp
	retq
	.cfi_endproc
                                        ## -- End function
	.section	__TEXT,__objc_methname,cstring_literals
L_OBJC_METH_VAR_NAME_:                  ## @OBJC_METH_VAR_NAME_
	.asciz	"selectGLContext"

	.section	__DATA,__objc_selrefs,literal_pointers,no_dead_strip
	.p2align	3               ## @OBJC_SELECTOR_REFERENCES_
_OBJC_SELECTOR_REFERENCES_:
	.quad	L_OBJC_METH_VAR_NAME_

	.section	__TEXT,__objc_methname,cstring_literals
L_OBJC_METH_VAR_NAME_.1:                ## @OBJC_METH_VAR_NAME_.1
	.asciz	"mlx_gl_draw"

	.section	__DATA,__objc_selrefs,literal_pointers,no_dead_strip
	.p2align	3               ## @OBJC_SELECTOR_REFERENCES_.2
_OBJC_SELECTOR_REFERENCES_.2:
	.quad	L_OBJC_METH_VAR_NAME_.1

	.section	__DATA,__objc_classrefs,regular,no_dead_strip
	.p2align	3               ## @"OBJC_CLASSLIST_REFERENCES_$_"
_OBJC_CLASSLIST_REFERENCES_$_:
	.quad	_OBJC_CLASS_$_NSApplication

	.section	__TEXT,__objc_methname,cstring_literals
L_OBJC_METH_VAR_NAME_.3:                ## @OBJC_METH_VAR_NAME_.3
	.asciz	"sharedApplication"

	.section	__DATA,__objc_selrefs,literal_pointers,no_dead_strip
	.p2align	3               ## @OBJC_SELECTOR_REFERENCES_.4
_OBJC_SELECTOR_REFERENCES_.4:
	.quad	L_OBJC_METH_VAR_NAME_.3

	.section	__DATA,__objc_classrefs,regular,no_dead_strip
	.p2align	3               ## @"OBJC_CLASSLIST_REFERENCES_$_.5"
_OBJC_CLASSLIST_REFERENCES_$_.5:
	.quad	_OBJC_CLASS_$_NSRunningApplication

	.section	__TEXT,__cstring,cstring_literals
L_.str:                                 ## @.str
	.asciz	"com.apple.finder"

	.section	__DATA,__cfstring
	.p2align	3               ## @_unnamed_cfstring_
L__unnamed_cfstring_:
	.quad	___CFConstantStringClassReference
	.long	1992                    ## 0x7c8
	.space	4
	.quad	L_.str
	.quad	16                      ## 0x10

	.section	__TEXT,__objc_methname,cstring_literals
L_OBJC_METH_VAR_NAME_.6:                ## @OBJC_METH_VAR_NAME_.6
	.asciz	"runningApplicationsWithBundleIdentifier:"

	.section	__DATA,__objc_selrefs,literal_pointers,no_dead_strip
	.p2align	3               ## @OBJC_SELECTOR_REFERENCES_.7
_OBJC_SELECTOR_REFERENCES_.7:
	.quad	L_OBJC_METH_VAR_NAME_.6

	.section	__TEXT,__objc_methname,cstring_literals
L_OBJC_METH_VAR_NAME_.8:                ## @OBJC_METH_VAR_NAME_.8
	.asciz	"countByEnumeratingWithState:objects:count:"

	.section	__DATA,__objc_selrefs,literal_pointers,no_dead_strip
	.p2align	3               ## @OBJC_SELECTOR_REFERENCES_.9
_OBJC_SELECTOR_REFERENCES_.9:
	.quad	L_OBJC_METH_VAR_NAME_.8

	.section	__TEXT,__objc_methname,cstring_literals
L_OBJC_METH_VAR_NAME_.10:               ## @OBJC_METH_VAR_NAME_.10
	.asciz	"activateWithOptions:"

	.section	__DATA,__objc_selrefs,literal_pointers,no_dead_strip
	.p2align	3               ## @OBJC_SELECTOR_REFERENCES_.11
_OBJC_SELECTOR_REFERENCES_.11:
	.quad	L_OBJC_METH_VAR_NAME_.10

	.section	__TEXT,__objc_methname,cstring_literals
L_OBJC_METH_VAR_NAME_.12:               ## @OBJC_METH_VAR_NAME_.12
	.asciz	"currentApplication"

	.section	__DATA,__objc_selrefs,literal_pointers,no_dead_strip
	.p2align	3               ## @OBJC_SELECTOR_REFERENCES_.13
_OBJC_SELECTOR_REFERENCES_.13:
	.quad	L_OBJC_METH_VAR_NAME_.12

	.section	__TEXT,__const
	.p2align	2               ## @font_atlas
_font_atlas:
	.long	1140                    ## 0x474
	.long	20                      ## 0x14
	.long	4                       ## 0x4
